; Function Attrs: mustprogress nounwind uwtable
define hidden noundef double @_ZNK8G1Policy19young_other_time_msEv(ptr nocapture noundef nonnull align 8 dereferenceable(552) %0) local_unnamed_addr #1 align 2 {
  %2 = getelementptr inbounds i8, ptr %0, i64 256
  %3 = load ptr, ptr %2, align 8
  %4 = icmp eq ptr %3, null
  br i1 %4, label %_ZNK8G1Policy11phase_timesEv.exit, label %_ZNK8G1Policy11phase_timesEv.exit1

_ZNK8G1Policy11phase_timesEv.exit:                ; preds = %1
  %5 = tail call noundef ptr @_Z12AllocateHeapm8MEMFLAGSN17AllocFailStrategy13AllocFailEnumE(i64 noundef 872, i8 noundef zeroext 5, i32 noundef 0) #18
  %6 = getelementptr inbounds i8, ptr %0, i64 248
  %7 = load ptr, ptr %6, align 8
  %8 = load i32, ptr @ParallelGCThreads, align 4
  tail call void @_ZN14G1GCPhaseTimesC1EP10STWGCTimerj(ptr noundef nonnull align 8 dereferenceable(872) %5, ptr noundef %7, i32 noundef %8) #18
  store ptr %5, ptr %2, align 8
  br label %_ZNK8G1Policy11phase_timesEv.exit1

_ZNK8G1Policy11phase_timesEv.exit1:               ; preds = %1, %_ZNK8G1Policy11phase_timesEv.exit
  %9 = phi ptr [ %5, %_ZNK8G1Policy11phase_timesEv.exit ], [ %3, %1 ]
  %.in = getelementptr inbounds i8, ptr %9, i64 520
  %10 = load double, ptr %.in, align 8
  %11 = tail call noundef double @_ZNK14G1GCPhaseTimes15average_time_msENS_11GCParPhasesE(ptr noundef nonnull align 8 dereferenceable(872) %9, i32 noundef 29) #18
  %12 = fadd double %10, %11
  ret double %12
}